target datalayout = "e-m:e-p270:32:32-p271:32:32-p272:64:64-i64:64-i128:128-f80:128-n8:16:32:64-S128"
target triple = "x86_64-pc-linux-gnu"

%"class.cv::tracking::impl::TrackerMedianFlowImpl" = type { %"class.cv::legacy::tracking::TrackerMedianFlow", %"struct.cv::legacy::tracking::TrackerMedianFlow::Params" }
%"class.cv::legacy::tracking::TrackerMedianFlow" = type { %"class.cv::legacy::tracking::Tracker" }
%"class.cv::legacy::tracking::Tracker" = type { %"class.cv::Algorithm", i8, %"struct.cv::Ptr", %"struct.cv::Ptr.0", %"struct.cv::Ptr.4" }
%"class.cv::Algorithm" = type { ptr }
%"struct.cv::Ptr" = type { %"class.std::shared_ptr" }
%"class.std::shared_ptr" = type { %"class.std::__shared_ptr" }
%"class.std::__shared_ptr" = type { ptr, %"class.std::__shared_count" }
%"class.std::__shared_count" = type { ptr }
%"struct.cv::Ptr.0" = type { %"class.std::shared_ptr.1" }
%"class.std::shared_ptr.1" = type { %"class.std::__shared_ptr.2" }
%"class.std::__shared_ptr.2" = type { ptr, %"class.std::__shared_count" }
%"struct.cv::Ptr.4" = type { %"class.std::shared_ptr.5" }
%"class.std::shared_ptr.5" = type { %"class.std::__shared_ptr.6" }
%"class.std::__shared_ptr.6" = type { ptr, %"class.std::__shared_count" }
%"struct.cv::legacy::tracking::TrackerMedianFlow::Params" = type { i32, %"class.cv::Size_", i32, %"class.cv::TermCriteria", %"class.cv::Size_", double }
%"class.cv::TermCriteria" = type { i32, i32, double }
%"class.cv::Size_" = type { i32, i32 }

; Function Attrs: mustprogress uwtable
define hidden void @_ZN2cv8tracking4impl21TrackerMedianFlowImpl4readERKNS_8FileNodeE(ptr noundef nonnull align 8 dereferenceable(112) %0, ptr noundef nonnull align 8 dereferenceable(24) %1) unnamed_addr #4 align 2 {
  %3 = alloca ptr, align 8
  %4 = alloca ptr, align 8
  store ptr %0, ptr %3, align 8, !tbaa !3
  store ptr %1, ptr %4, align 8, !tbaa !8
  %5 = load ptr, ptr %3, align 8
  %6 = getelementptr inbounds nuw %"class.cv::tracking::impl::TrackerMedianFlowImpl", ptr %5, i32 0, i32 1
  %7 = load ptr, ptr %4, align 8, !tbaa !8
  call void @_ZN2cv6legacy8tracking17TrackerMedianFlow6Params4readERKNS_8FileNodeE(ptr noundef nonnull align 8 dereferenceable(48) %6, ptr noundef nonnull align 8 dereferenceable(24) %7)
  ret void
}

; Function Attrs: uwtable
define hidden void @_ZTv0_n48_N2cv8tracking4impl21TrackerMedianFlowImpl4readERKNS_8FileNodeE(ptr noundef %0, ptr noundef nonnull align 8 dereferenceable(24) %1) unnamed_addr #0 align 2 {
  %3 = alloca ptr, align 8
  %4 = alloca ptr, align 8
  store ptr %0, ptr %3, align 8, !tbaa !3
  store ptr %1, ptr %4, align 8, !tbaa !8
  %5 = load ptr, ptr %3, align 8
  %6 = load ptr, ptr %5, align 8, !tbaa !17
  %7 = getelementptr inbounds i8, ptr %6, i64 -48
  %8 = load i64, ptr %7, align 8
  %9 = getelementptr inbounds i8, ptr %5, i64 %8
  %10 = load ptr, ptr %4, align 8
  tail call void @_ZN2cv8tracking4impl21TrackerMedianFlowImpl4readERKNS_8FileNodeE(ptr noundef nonnull align 8 dereferenceable(112) %9, ptr noundef nonnull align 8 dereferenceable(24) %10)
  ret void
}